(lp0
(F1.7222222222222223
F1.5384615384615385
tp1
a(F-50.95577395577396
F3.250614250614251
tp2
a(F-18.65645514223195
F-22.420860685630927
tp3
a(F-3320.0729366602686
F-3519.1957773512477
tp4
a(F9.931034482758621
F13.879310344827585
tp5
a(F-1698.8505928853756
F-1611.3201581027668
tp6
a(F3072.3214285714284
F3948.25
tp7
a(F45.43257116192254
F40.47363509099393
tp8
a(F-1533.8524096385543
F-1488.7789156626507
tp9
a(F88.87527400263042
F91.18369136343709
tp10
a(F-1.2830188679245282
F0.1320754716981132
tp11
a(F-632.969537815126
F-1002.1081932773109
tp12
a(F0.19047619047619047
F0.38095238095238093
tp13
a(F-1678.2567741935484
F-1756.4774193548387
tp14
a(F-1753.94375
F-991.625
tp15
a(F72.29540709812109
F68.76565762004175
tp16
a(cnumpy.core.multiarray
scalar
p17
(cnumpy
dtype
p18
(S'i2'
p19
I0
I1
tp20
Rp21
(I3
S'<'
p22
NNNI-1
I-1
I0
tp23
bS'\x00\x00'
p24
tp25
Rp26
g17
(g21
S'\x00\x00'
p27
tp28
Rp29
tp30
a(F-668.8695652173913
F-1667.7826086956522
tp31
a(F4799.272946859904
F4856.731884057971
tp32
a(F6996.391608391608
F7036.629370629371
tp33
a(F-363.9192442480573
F-378.06993752856926
tp34
a(F-162.37226277372264
F-166.51913833006944
tp35
a(F6.183673469387755
F12.183673469387756
tp36
a(F4.341463414634147
F20.853658536585368
tp37
a(F10.651851851851852
F17.303703703703704
tp38
a(g17
(g21
S'\x00\x00'
p39
tp40
Rp41
g17
(g21
S'\x00\x00'
p42
tp43
Rp44
tp45
a(F-7631.266666666666
F-8218.0
tp46
a(F6.91703056768559
F1.9301310043668123
tp47
a(F4246.4964664310955
F4283.128975265017
tp48
a(F11008.458333333334
F11042.708333333334
tp49
a(F75.61558784676355
F-690.1875825627477
tp50
a(F-10344.277777777777
F-10371.0
tp51
a(F12538.0
F12600.833333333334
tp52
a(F-13165.0
F-10920.75
tp53
a(F3.324074074074074
F3.925925925925926
tp54
a(F7521.7164179104475
F7039.432835820896
tp55
a(F3773.5148188803514
F3781.345773874863
tp56
a(F-1004.3285113098369
F-1013.3850604944766
tp57
a(F3421.745283018868
F3540.877358490566
tp58
a(F-2062.41156462585
F-1980.6031746031747
tp59
a(F-4784.610412926391
F-4866.675044883304
tp60
a(F9.0
F8.776119402985074
tp61
a(F10.0
F10.974358974358974
tp62
a(F12.5
F14.438775510204081
tp63
a(g17
(g21
S'\x00\x00'
p64
tp65
Rp66
g17
(g21
S'\x00\x00'
p67
tp68
Rp69
tp70
a(g17
(g21
S'\x00\x00'
p71
tp72
Rp73
g17
(g21
S'\x00\x00'
p74
tp75
Rp76
tp77
a(g17
(g21
S'\x00\x00'
p78
tp79
Rp80
g17
(g21
S'\x00\x00'
p81
tp82
Rp83
tp84
a(F-11384.5
F-10838.5
tp85
a(F6259.333333333333
F6284.919047619048
tp86
a(F10.764150943396226
F5.179245283018868
tp87
a(F-3545.75
F-3437.8958333333335
tp88
a(g17
(g21
S'\xbaF'
p89
tp90
Rp91
g17
(g21
S'\xc9B'
p92
tp93
Rp94
tp95
a(F1504.9098360655737
F2095.1721311475408
tp96
a(F4449.264900662251
F4481.832229580574
tp97
a(F-2089.06910907577
F-2158.344712739384
tp98
a(F1304.2454545454545
F1318.3847107438016
tp99
a(F3176.934139784946
F3194.592741935484
tp100
a(F8992.90410958904
F8884.82191780822
tp101
a(F5917.952066115702
F5927.180165289256
tp102
a(F1.1352941176470588
F12.894117647058824
tp103
a(F-264.8594420600858
F-68.98283261802575
tp104
a(F12.104166666666666
F10.5
tp105
a(F4825.108695652174
F4587.623188405797
tp106
a(F1505.4559748427673
F676.8867924528302
tp107
a(F12.753086419753087
F8.123456790123457
tp108
a(F-5864.319391634981
F-5793.21102661597
tp109
a(g17
(g21
S'\x00\x00'
p110
tp111
Rp112
g17
(g21
S'\x00\x00'
p113
tp114
Rp115
tp116
a(g17
(g21
S'\xcc\x1c'
p117
tp118
Rp119
g17
(g21
S"#'"
p120
tp121
Rp122
tp123
a(F-10986.666666666666
F-9034.0
tp124
a(F-8573.914285714285
F-7904.257142857143
tp125
a(F-3.9957627118644066
F0.046610169491525424
tp126
a(g17
(g21
S'\x00\x00'
p127
tp128
Rp129
g17
(g21
S'\x00\x00'
p130
tp131
Rp132
tp133
a(F4029.3186206896553
F4040.984827586207
tp134
a(F-7287.924528301887
F-7450.773584905661
tp135
a(F-2382.5353773584907
F-2089.8372641509436
tp136
a(g17
(g21
S'\xeb\xbf'
p137
tp138
Rp139
g17
(g21
S'\x9a\xbc'
p140
tp141
Rp142
tp143
a(F0.458041958041958
F-6.811188811188811
tp144
a(F-3741.107819905213
F-3731.142180094787
tp145
a(F13.803763440860216
F22.661290322580644
tp146
a(g17
(g21
S'\x00\x00'
p147
tp148
Rp149
g17
(g21
S'\x00\x00'
p150
tp151
Rp152
tp153
a(g17
(g21
S'\x00\x00'
p154
tp155
Rp156
g17
(g21
S'\x00\x00'
p157
tp158
Rp159
tp160
a(F-212.32156368221942
F-213.68690326067374
tp161
a(F-472.23738532110093
F-254.90366972477065
tp162
a(g17
(g21
S'\x00\x00'
p163
tp164
Rp165
g17
(g21
S'\x00\x00'
p166
tp167
Rp168
tp169
a(F5581.939157566303
F5570.953198127925
tp170
a(g17
(g21
S'\x00\x00'
p171
tp172
Rp173
g17
(g21
S'\x00\x00'
p174
tp175
Rp176
tp177
a(F-14998.0
F-14554.75
tp178
a(F731.0168938944872
F791.9063426200356
tp179
a(g17
(g21
S'\x00\x00'
p180
tp181
Rp182
g17
(g21
S'\x00\x00'
p183
tp184
Rp185
tp186
a(g17
(g21
S'\x00\x00'
p187
tp188
Rp189
g17
(g21
S'\x00\x00'
p190
tp191
Rp192
tp193
a(g17
(g21
S'\x00\x00'
p194
tp195
Rp196
g17
(g21
S'\x00\x00'
p197
tp198
Rp199
tp200
a(F-28.785416666666666
F-32.24166666666667
tp201
a(F-660.340080018828
F-656.9185690750764
tp202
a(F-3162.9446902654868
F-3136.835545722714
tp203
a(F-272.6163573657415
F-280.5688947281984
tp204
a(g17
(g21
S'\x00\x00'
p205
tp206
Rp207
g17
(g21
S'\x00\x00'
p208
tp209
Rp210
tp211
a(F9847.086206896553
F9863.327586206897
tp212
a(g17
(g21
S'\x00\x00'
p213
tp214
Rp215
g17
(g21
S'\x00\x00'
p216
tp217
Rp218
tp219
a(F-61.21912350597609
F82.06972111553785
tp220
a(F4590.2722513089
F4677.374345549738
tp221
a(F123.74273127753304
F274.45726872246695
tp222
a(F16.569811320754717
F1.3320754716981131
tp223
a(g17
(g21
S'\x00\x00'
p224
tp225
Rp226
g17
(g21
S'\x00\x00'
p227
tp228
Rp229
tp230
a(F14.76
F10.753333333333334
tp231
a(F945.544477028348
F914.2649071358749
tp232
a(F-1871.9281183932346
F-1892.2621564482029
tp233
a(F-67.74370503597122
F-102.21852517985612
tp234
a(F2480.621675531915
F2484.9581117021276
tp235
a(F-8861.75
F-12338.0
tp236
a(F-46.53897607409313
F-46.31618214561358
tp237
a(F194.44206773618538
F-131.49554367201426
tp238
a(F-1394.6917204932472
F-1335.5114503816794
tp239
a(F10.2
F8.8
tp240
a(F19.8111753371869
F16.81888246628131
tp241
a(F6638.203076923077
F6605.815384615385
tp242
a(F39.70997679814385
F-77.07192575406033
tp243
a(F-2591.8552631578946
F-2494.6973684210525
tp244
a(F-1181.0841046277667
F-1157.2498993963782
tp245
a(F0.037037037037037035
F-2.2169312169312168
tp246
a(F31.843198992443323
F30.97670025188917
tp247
a(F141.49122261923256
F148.00745688985552
tp248
a(F53.465635738831615
F52.96907216494845
tp249
a(g17
(g21
S'\xf5<'
p250
tp251
Rp252
g17
(g21
S'\x9a2'
p253
tp254
Rp255
tp256
a(F-13.157894736842104
F-106.23684210526316
tp257
a(F92.66509433962264
F4.404088050314465
tp258
a(F233.1139240506329
F51.690360272638756
tp259
a(F-830.7210300429184
F-345.4334763948498
tp260
a(F45.047407407407405
F535.5822222222222
tp261
a(F-3821.6153846153848
F-2861.3076923076924
tp262
a(F3067.8038461538463
F2853.623076923077
tp263
a(g17
(g21
S'\x00\x00'
p264
tp265
Rp266
g17
(g21
S'\x00\x00'
p267
tp268
Rp269
tp270
a(F-7772.5
F-5431.875
tp271
a(F669.1099611901682
F-112.91591203104787
tp272
a(g17
(g21
S'\x00\x00'
p273
tp274
Rp275
g17
(g21
S'\x00\x00'
p276
tp277
Rp278
tp279
a(F8.05952380952381
F13.142857142857142
tp280
a(F-5.376404494382022
F159.84831460674158
tp281
a(F12.0
F12.0
tp282
a(g17
(g21
S'kR'
p283
tp284
Rp285
g17
(g21
S'\xfcP'
p286
tp287
Rp288
tp289
a(F-3953.287386215865
F-4018.076723016905
tp290
a(F-14.34341252699784
F-4.0950323974082075
tp291
a(F3696.777777777778
F2817.161616161616
tp292
a(F-1370.175
F-157.44166666666666
tp293
a(F-7977.774193548387
F-7494.967741935484
tp294
a(F8.007936507936508
F-5.392857142857143
tp295
a(F-10.566523605150214
F-12.159656652360516
tp296
a(g17
(g21
S'\x00\x00'
p297
tp298
Rp299
g17
(g21
S'\x00\x00'
p300
tp301
Rp302
tp303
a(F37.047120418848166
F-22.87958115183246
tp304
a(F-5037.415204678363
F-4522.421052631579
tp305
a(g17
(g21
S'\x00\x00'
p306
tp307
Rp308
g17
(g21
S'\x00\x00'
p309
tp310
Rp311
tp312
a(F12.351906158357771
F37.225806451612904
tp313
a(F1739.1234967622572
F1748.3223866790008
tp314
a(F1.0
F7.578947368421052
tp315
a(F-38.71944739638682
F-26.810839532412327
tp316
a(F-2967.900432900433
F-2534.147186147186
tp317
a(F-27.698795180722893
F21.369477911646587
tp318
a(F-8917.363636363636
F-8841.636363636364
tp319
a(F-4261.8112
F-4244.608
tp320
a(g17
(g21
S'\x00\x00'
p321
tp322
Rp323
g17
(g21
S'\x00\x00'
p324
tp325
Rp326
tp327
a(F18.098958333333332
F-263.9895833333333
tp328
a(F29.818815331010452
F1009.5052264808362
tp329
a(F-126.36057068741894
F3.7029831387808043
tp330
a(g17
(g21
S'\x989'
p331
tp332
Rp333
g17
(g21
S'\xf7='
p334
tp335
Rp336
tp337
a(g17
(g21
S'\x00\x00'
p338
tp339
Rp340
g17
(g21
S'\x00\x00'
p341
tp342
Rp343
tp344
a(g17
(g21
S'\x00\x00'
p345
tp346
Rp347
g17
(g21
S'\x00\x00'
p348
tp349
Rp350
tp351
a(F1928.8248847926268
F1302.668202764977
tp352
a(F222.65314136125656
F217.06860178626425
tp353
a(F37.441803278688525
F43.24590163934426
tp354
a(F22.245481927710845
F20.45632530120482
tp355
a(F3811.6603773584907
F4554.226415094339
tp356
a(g17
(g21
S'\x00\x00'
p357
tp358
Rp359
g17
(g21
S'\x00\x00'
p360
tp361
Rp362
tp363
a(F3562.2690647482013
F3524.8762589928056
tp364
a(F8322.32
F8289.67
tp365
a(F8.609375
F6.625
tp366
a(g17
(g21
S'\x00\x00'
p367
tp368
Rp369
g17
(g21
S'\x00\x00'
p370
tp371
Rp372
tp373
a(F4634.662337662337
F4240.233766233766
tp374
a(F15.590909090909092
F15.869318181818182
tp375
a(F13.53896103896104
F13.480519480519481
tp376
a(F4509.734177215189
F3749.0379746835442
tp377
a(F-5305.6560975609755
F-5318.389024390244
tp378
a(F-2311.307520476545
F-2344.258376768429
tp379
a(F5252.666666666667
F4926.581196581196
tp380
a(F117.24036222509703
F110.1417852522639
tp381
a(F4999.341176470588
F5073.308235294117
tp382
a(g17
(g21
S'\x0c\x00'
p383
tp384
Rp385
g17
(g21
S'\x0c\x00'
p386
tp387
Rp388
tp389
a(F7464.607329842932
F7508.623036649215
tp390
a(F2964.8369304556354
F3035.2865707434053
tp391
a(F-5571.445945945946
F-6421.216216216216
tp392
a(F-828.2280927835052
F-810.4752577319588
tp393
a(F-6474.5952380952385
F-7195.619047619048
tp394
a(F-7923.235294117647
F-8997.70588235294
tp395
a(F-13.664516129032258
F-46.26236559139785
tp396
a(F-1383.9961089494163
F-1577.6368352788586
tp397
a(F-5.511864406779661
F-5.898305084745763
tp398
a(F-69.92593316396326
F-66.38049638460035
tp399
a(F6361.875
F7872.125
tp400
a(F-2480.9252468265163
F-2681.695345557123
tp401
a(F437.0740740740741
F1808.4444444444443
tp402
a(F-129.54714003944773
F-128.82958579881657
tp403
a(F-18.118828932261767
F-15.917336394948336
tp404
a(F-499.89869105253723
F-515.187018110095
tp405
a(F-284.1077199281867
F265.31597845601436
tp406
a(F-1120.3327702702702
F-776.018581081081
tp407
a(F-4389.053571428572
F-3739.2589285714284
tp408
a(F1994.6917016806722
F1996.0094537815125
tp409
a(F-6378.513618677042
F-6317.774319066148
tp410
a(F6.4397590361445785
F6.0120481927710845
tp411
a(F11723.5
F11728.714285714286
tp412
a(F18.51834862385321
F56.55733944954128
tp413
a(F3326.3722126929674
F3346.2024013722125
tp414
a(g17
(g21
S'r<'
p415
tp416
Rp417
g17
(g21
S'pB'
p418
tp419
Rp420
tp421
a(F-26.39817232375979
F-20.780678851174933
tp422
a(F11.0
F10.592592592592593
tp423
a(F1098.7060594655627
F1132.4587881068874
tp424
a(F-9.193661971830986
F30.848591549295776
tp425
a(F7848.196428571428
F7883.339285714285
tp426
a(F-2102.5308056872036
F-1641.0947867298578
tp427
a(F1.9931350114416475
F-21.784897025171624
tp428
a(F5.795918367346939
F8.83673469387755
tp429
a(F361.09486716956377
F359.2739422761561
tp430
a(F-6850.038461538462
F-6705.5
tp431
a(F23.92265193370166
F25.94696132596685
tp432
a(F-2728.4523809523807
F-3769.0
tp433
a(g17
(g21
S'\x0c\x00'
p434
tp435
Rp436
g17
(g21
S'\x0c\x00'
p437
tp438
Rp439
tp440
a(F2229.390082644628
F2249.6760330578513
tp441
a(F581.6837531300633
F557.0091324200913
tp442
a(F-11371.636363636364
F-11635.09090909091
tp443
a(F-636.2205882352941
F62.508823529411764
tp444
a(F-11752.5
F-13545.75
tp445
a(F-7350.466666666666
F-7011.444444444444
tp446
a(F-2835.452274183216
F-2863.159513132607
tp447
a(F21.471014492753625
F8.978260869565217
tp448
a(F2467.6363636363635
F2846.2922077922076
tp449
a(F-1233.5134328358208
F-1324.8477611940298
tp450
a(F-1740.5323741007194
F-2563.0143884892086
tp451
a(F-4418.200392927309
F-4551.094302554027
tp452
a(g17
(g21
S'\x00\x00'
p453
tp454
Rp455
g17
(g21
S'\x00\x00'
p456
tp457
Rp458
tp459
a(F7.684210526315789
F10.31578947368421
tp460
a(g17
(g21
S'\x00\x00'
p461
tp462
Rp463
g17
(g21
S'\x00\x00'
p464
tp465
Rp466
tp467
a(F-4.188571428571429
F4.6
tp468
a(F-100.88756560355269
F-97.29592248687929
tp469
a(F7837.625
F8987.625
tp470
a(F1504.1090746535538
F1526.1555654894948
tp471
a(F-11.162790697674419
F6.767441860465116
tp472
a(F5263.814531548757
F5302.799235181645
tp473
a(F-9483.84
F-9516.36
tp474
a(F8.0
F8.657142857142857
tp475
a(g17
(g21
S'\x00\x00'
p476
tp477
Rp478
g17
(g21
S'\x00\x00'
p479
tp480
Rp481
tp482
a(F2748.981981981982
F1812.981981981982
tp483
a(F41.679049034175335
F86.08766716196136
tp484
a(g17
(g21
S'\x00\x00'
p485
tp486
Rp487
g17
(g21
S'\x00\x00'
p488
tp489
Rp490
tp491
a(F37.14225941422594
F15.621338912133892
tp492
a(F9.0
F10.486486486486486
tp493
a(g17
(g21
S'\x00\x00'
p494
tp495
Rp496
g17
(g21
S'\x00\x00'
p497
tp498
Rp499
tp500
a(F2749.3056234718824
F2744.637326813366
tp501
a(F-910.290909090909
F625.5818181818182
tp502
a(F5598.5142857142855
F4438.085714285714
tp503
a.