(lp0
(F461.1290962798855
F441.1909443367488
tp1
a(F5251.448143712575
F5251.385868263473
tp2
a(F1136.26078829744
F1131.0703778951645
tp3
a(F-244.27363598500625
F-257.48347279542617
tp4
a(F22.04120267260579
F803.022271714922
tp5
a(F-3724.2309127662884
F-3723.9365573005753
tp6
a(F3507.949672471641
F3508.15865154178
tp7
a(F-35.54647601794341
F-37.993982919254655
tp8
a(F-6046.547415547416
F-6043.97150997151
tp9
a(F-1270.802112479015
F-1270.6462646894236
tp10
a(F2136.1792842011373
F2135.337161333482
tp11
a(F138.52621673141422
F134.04678715343965
tp12
a(F-2228.7568290353393
F-2229.6239732569247
tp13
a(F-632.786649295862
F-649.9322538619022
tp14
a(F-744.8150163220893
F48.66594124047878
tp15
a(F7543.511415525114
F7542.006088280061
tp16
a.