(lp0
(F-0.009368624945771696
F-0.009992526570412785
tp1
a(F-0.1391441199570984
F-0.13911657131846097
tp2
a(F-0.0254673752753719
F0.027738717041326504
tp3
a(F0.3235564022381886
F0.3235455088746425
tp4
a(F-0.021974269448286635
F-0.02243294351748273
tp5
a(F0.01683422654605554
F0.01630086699406657
tp6
a(F-0.32664036820751197
F-0.3268711215351879
tp7
a(F-0.505599954771438
F-0.5051582987986629
tp8
a(F0.049257036309639735
F0.049102999646104206
tp9
a(F0.13650963769513322
F0.13642591418050062
tp10
a(F-0.0644358605748777
F-0.06440355468521455
tp11
a(F-0.09456833201052495
F-0.09462715040355527
tp12
a(F-0.21443644744799029
F-0.21438668787191656
tp13
a(F0.00470529499190114
F0.004340621675969773
tp14
a(F-0.0018354416286935715
F-0.0019615285679497724
tp15
a(F-0.04116018822371803
F-0.04148595171619308
tp16
a.