(lp0
(F2862.5106861642294
F2907.0928008998876
tp1
a(F-1.0180878552971577
F0.5736434108527132
tp2
a(F-15.873987398739875
F-16.139513951395138
tp3
a(F-297.8306047127851
F-293.6721869972556
tp4
a(F12.272727272727273
F10.0
tp5
a(cnumpy.core.multiarray
scalar
p6
(cnumpy
dtype
p7
(S'i2'
p8
I0
I1
tp9
Rp10
(I3
S'<'
p11
NNNI-1
I-1
I0
tp12
bS'\x02\xca'
p13
tp14
Rp15
g6
(g10
S'\xf8\xd4'
p16
tp17
Rp18
tp19
a(g6
(g10
S'\x00\x00'
p20
tp21
Rp22
g6
(g10
S'\x00\x00'
p23
tp24
Rp25
tp26
a(F53.89601702645181
F58.435086652477956
tp27
a(F-725.2408163265306
F-133.68163265306123
tp28
a(F-2307.3333333333335
F-4654.75
tp29
a(F5974.845464725644
F5971.96640537514
tp30
a(F1828.1897410358565
F1913.9865537848605
tp31
a(F-1465.6264367816093
F-1771.7298850574712
tp32
a(g6
(g10
S'\x00\x00'
p33
tp34
Rp35
g6
(g10
S'\x00\x00'
p36
tp37
Rp38
tp39
a(F2539.967032967033
F1757.8241758241759
tp40
a(F3834.689429928741
F3831.54216152019
tp41
a(g6
(g10
S'\x00\x00'
p42
tp43
Rp44
g6
(g10
S'\x00\x00'
p45
tp46
Rp47
tp48
a(F-6533.409090909091
F-7377.909090909091
tp49
a(F-7791.15
F-8593.2
tp50
a(F9.279069767441861
F8.410852713178295
tp51
a(F-4854.585365853659
F-3891.9268292682927
tp52
a(F194.5519393669193
F188.465559518502
tp53
a(g6
(g10
S'\x00\x00'
p54
tp55
Rp56
g6
(g10
S'\x00\x00'
p57
tp58
Rp59
tp60
a(F-1218.1250896914614
F-1237.141592920354
tp61
a(g6
(g10
S'&O'
p62
tp63
Rp64
g6
(g10
S'\xd7E'
p65
tp66
Rp67
tp68
a(F-1604.3866432337434
F-1488.0070298769772
tp69
a(F-32.311206896551724
F-52.20431034482758
tp70
a(F20.48041237113402
F-485.92474226804126
tp71
a(F2150.051282051282
F403.20512820512823
tp72
a(F10.0
F11.319148936170214
tp73
a(F15.589887640449438
F13.331460674157304
tp74
a(F267.19441674975076
F8.307078763708873
tp75
a(F7.604651162790698
F11.0
tp76
a(F-1.9774436090225564
F-8.907626208378089
tp77
a(g6
(g10
S'\x00\x00'
p78
tp79
Rp80
g6
(g10
S'\x00\x00'
p81
tp82
Rp83
tp84
a(g6
(g10
S'\x00\x00'
p85
tp86
Rp87
g6
(g10
S'\x00\x00'
p88
tp89
Rp90
tp91
a(F9376.5
F10194.5
tp92
a(F11205.380952380952
F10760.57142857143
tp93
a(F7.48
F8.0
tp94
a(F-648.7575757575758
F754.0787878787879
tp95
a(F-19.172043010752688
F74.03763440860214
tp96
a(F5.692913385826771
F7.070866141732283
tp97
a(F17.57471264367816
F38.57471264367816
tp98
a(F45.06210392902408
F47.55893536121673
tp99
a(F-207.23410852713178
F-191.19302325581396
tp100
a(F-3111.5675675675675
F-2487.864864864865
tp101
a(F-1863.2714893617022
F-1917.1770212765957
tp102
a(F2994.6
F1192.2
tp103
a(g6
(g10
S'\x00\x00'
p104
tp105
Rp106
g6
(g10
S'\x00\x00'
p107
tp108
Rp109
tp110
a(g6
(g10
S'\x15\xce'
p111
tp112
Rp113
g6
(g10
S'|\xcb'
p114
tp115
Rp116
tp117
a(g6
(g10
S'\x00\x00'
p118
tp119
Rp120
g6
(g10
S'\x00\x00'
p121
tp122
Rp123
tp124
a(F2312.0044943820226
F2164.6337078651686
tp125
a(F-2020.759842519685
F-2464.3582677165355
tp126
a(F-498.97227722772277
F-1081.219801980198
tp127
a(F1577.842298609289
F1568.1839412227762
tp128
a(F-60.39313984168865
F3.770448548812665
tp129
a(g6
(g10
S'\x00\x00'
p130
tp131
Rp132
g6
(g10
S'\x00\x00'
p133
tp134
Rp135
tp136
a(F124.72549019607843
F146.3619501854796
tp137
a(F-2812.2428571428572
F-2740.7428571428572
tp138
a(g6
(g10
S'\x00\x00'
p139
tp140
Rp141
g6
(g10
S'\x00\x00'
p142
tp143
Rp144
tp145
a(g6
(g10
S'\x00\x00'
p146
tp147
Rp148
g6
(g10
S'\x00\x00'
p149
tp150
Rp151
tp152
a(F-3838.046511627907
F-4915.883720930233
tp153
a(F14.699815837937384
F15.723756906077348
tp154
a(F-71.36281588447653
F-71.77030685920577
tp155
a(F-4410.694444444444
F-3679.75
tp156
a(F1130.830409356725
F550.8654970760234
tp157
a(F6792.839009287925
F6806.17750257998
tp158
a(F585.5688473520249
F562.9504672897197
tp159
a(F-5646.4754601227
F-5572.538343558283
tp160
a(g6
(g10
S'\x00\x00'
p161
tp162
Rp163
g6
(g10
S'\x00\x00'
p164
tp165
Rp166
tp167
a(F14.063241106719367
F26.1699604743083
tp168
a(F10197.516129032258
F10298.806451612903
tp169
a(g6
(g10
S'\x00\x00'
p170
tp171
Rp172
g6
(g10
S'\x00\x00'
p173
tp174
Rp175
tp176
a(F9.0
F11.88
tp177
a(F-9.23452157598499
F-8.827392120075046
tp178
a(F-2167.920704845815
F-1674.5154185022027
tp179
a(F10.738636363636363
F6.011363636363637
tp180
a(F11.0
F11.578947368421053
tp181
a(F4296.020176544766
F4309.873896595208
tp182
a(F-5936.760869565217
F-6871.0
tp183
a(F-2226.2619453924913
F-2238.6100682593856
tp184
a(F794.9010654490106
F588.7610350076103
tp185
a(g6
(g10
S'\x00\x00'
p186
tp187
Rp188
g6
(g10
S'\x00\x00'
p189
tp190
Rp191
tp192
a(g6
(g10
S'\x00\x00'
p193
tp194
Rp195
g6
(g10
S'\x00\x00'
p196
tp197
Rp198
tp199
a(F437.54695187165777
F511.26844919786095
tp200
a(F-4815.17254174397
F-4770.499072356215
tp201
a(F-2551.8672566371683
F-3236.353982300885
tp202
a(F233.42197802197802
F-243.0901098901099
tp203
a(g6
(g10
S'\x00\x00'
p204
tp205
Rp206
g6
(g10
S'\x00\x00'
p207
tp208
Rp209
tp210
a(g6
(g10
S'\x00\x00'
p211
tp212
Rp213
g6
(g10
S'\x00\x00'
p214
tp215
Rp216
tp217
a(F-2378.9189814814813
F-2139.800925925926
tp218
a(F3153.843049327354
F2784.0
tp219
a(F-15039.285714285714
F-14824.714285714286
tp220
a(F939.6152268064736
F991.8625484385685
tp221
a(F4673.582417582417
F4688.786499215071
tp222
a(g6
(g10
S'\x00\x00'
p223
tp224
Rp225
g6
(g10
S'\x00\x00'
p226
tp227
Rp228
tp229
a(F-489.3225474609558
F-493.85869260263723
tp230
a(F107.91490486257928
F130.0977801268499
tp231
a(g6
(g10
S'\xab='
p232
tp233
Rp234
g6
(g10
S'W6'
p235
tp236
Rp237
tp238
a(g6
(g10
S'\x8b\xc6'
p239
tp240
Rp241
g6
(g10
S'\x87\xce'
p242
tp243
Rp244
tp245
a(g6
(g10
S'1\xbd'
p246
tp247
Rp248
g6
(g10
S'\x83\xbb'
p249
tp250
Rp251
tp252
a(F-1462.7536023054754
F-1614.8342939481267
tp253
a(F-30.84144645340751
F-33.46314325452017
tp254
a(F-162.67794486215539
F-88.70238095238095
tp255
a(F-154.55172413793105
F177.7616191904048
tp256
a(F2.6844613918017157
F430.77407054337465
tp257
a(F-563.3555555555556
F273.8888888888889
tp258
a(g6
(g10
S'\x11M'
p259
tp260
Rp261
g6
(g10
S'\x9fO'
p262
tp263
Rp264
tp265
a(g6
(g10
S'\x00\x00'
p266
tp267
Rp268
g6
(g10
S'\x00\x00'
p269
tp270
Rp271
tp272
a(g6
(g10
S'\x00\x00'
p273
tp274
Rp275
g6
(g10
S'\x00\x00'
p276
tp277
Rp278
tp279
a(F28.557401812688823
F-41.28851963746224
tp280
a(F5887.0
F4336.6
tp281
a(F36.73110465116279
F34.1656976744186
tp282
a(F11.794871794871796
F13.0
tp283
a(F-101.36585365853658
F-13.840650406504064
tp284
a(F18.612456747404845
F76.20069204152249
tp285
a(F694.2614096678369
F761.4283013772617
tp286
a(F-6891.916666666667
F-4862.583333333333
tp287
a(F1802.3191489361702
F1033.6063829787233
tp288
a(g6
(g10
S'\x00\x00'
p289
tp290
Rp291
g6
(g10
S'\x00\x00'
p292
tp293
Rp294
tp295
a(F-11070.181818181818
F-10170.181818181818
tp296
a(g6
(g10
S'\x00\x00'
p297
tp298
Rp299
g6
(g10
S'\x00\x00'
p300
tp301
Rp302
tp303
a(F41.43980169971671
F40.48016997167139
tp304
a(F9123.969230769231
F8939.63076923077
tp305
a(F26.33252427184466
F-108.48543689320388
tp306
a(F-7.482213438735178
F-12.802371541501977
tp307
a(g6
(g10
S'\x00\x00'
p308
tp309
Rp310
g6
(g10
S'\x00\x00'
p311
tp312
Rp313
tp314
a(F9753.0
F11370.5
tp315
a(F31.207166853303473
F30.503919372900334
tp316
a(F-0.78839590443686
F-2.8003412969283277
tp317
a(F-1438.7052139037432
F-1471.7513368983957
tp318
a(F-2537.3303167420813
F-2796.006787330317
tp319
a(F-3755.3789378937895
F-3848.259225922592
tp320
a(g6
(g10
S'\x00\x00'
p321
tp322
Rp323
g6
(g10
S'\x00\x00'
p324
tp325
Rp326
tp327
a(F7.376
F4.56
tp328
a(F4.836879432624113
F13.75886524822695
tp329
a(F-124.30716723549489
F-102.18088737201366
tp330
a(F675.0621531631521
F72.04994450610432
tp331
a(F103.01146131805157
F-14.946991404011461
tp332
a(g6
(g10
S'\x00\x00'
p333
tp334
Rp335
g6
(g10
S'\x00\x00'
p336
tp337
Rp338
tp339
a(g6
(g10
S'\x00\x00'
p340
tp341
Rp342
g6
(g10
S'\x00\x00'
p343
tp344
Rp345
tp346
a(F8.0
F7.0
tp347
a(F260.58664363845713
F271.7656879677605
tp348
a(g6
(g10
S'\x00\x00'
p349
tp350
Rp351
g6
(g10
S'\x00\x00'
p352
tp353
Rp354
tp355
a(g6
(g10
S'\x00\x00'
p356
tp357
Rp358
g6
(g10
S'\x00\x00'
p359
tp360
Rp361
tp362
a(F17.272727272727273
F19.87129724208376
tp363
a(F363.44582359813086
F350.4602803738318
tp364
a(F22.050473186119874
F131.62776025236593
tp365
a(F9.0
F10.0
tp366
a(g6
(g10
S'\x00\x00'
p367
tp368
Rp369
g6
(g10
S'\x00\x00'
p370
tp371
Rp372
tp373
a(F-1054.5099321705427
F-975.8413275193799
tp374
a(F5307.719851576994
F5307.155225726654
tp375
a(F-1335.159420289855
F167.94202898550725
tp376
a(F1.2911392405063291
F3.4050632911392404
tp377
a(F-60.21918819188192
F-53.56826568265683
tp378
a(g6
(g10
S'\x00\x00'
p379
tp380
Rp381
g6
(g10
S'\x00\x00'
p382
tp383
Rp384
tp385
a(F-124.46685969168166
F-130.40926520071994
tp386
a(F4.885714285714286
F41.17551020408163
tp387
a(F-4085.0052173913045
F-3925.4695652173914
tp388
a(F-19.27678113787801
F-22.87954894925679
tp389
a(F27.01851851851852
F23.574074074074073
tp390
a(g6
(g10
S'\x00\x00'
p391
tp392
Rp393
g6
(g10
S'\x00\x00'
p394
tp395
Rp396
tp397
a(F-12946.0
F-10889.0
tp398
a(F3973.9880952380954
F4211.960317460317
tp399
a(F-48.13837375178316
F-129.63480741797432
tp400
a(g6
(g10
S'\x00\x00'
p401
tp402
Rp403
g6
(g10
S'\x00\x00'
p404
tp405
Rp406
tp407
a(F-47.11303719754424
F-44.32249909714699
tp408
a(F-19.53978494623656
F-234.2516129032258
tp409
a(F3851.714285714286
F5565.857142857143
tp410
a(F-1458.8768186226964
F-1331.953443258972
tp411
a(F3069.149289099526
F3228.855450236967
tp412
a(F11948.421052631578
F12052.78947368421
tp413
a(F-9.42455242966752
F13.240409207161125
tp414
a(g6
(g10
S'\x00\x00'
p415
tp416
Rp417
g6
(g10
S'\x00\x00'
p418
tp419
Rp420
tp421
a(g6
(g10
S'\x00\x00'
p422
tp423
Rp424
g6
(g10
S'\x00\x00'
p425
tp426
Rp427
tp428
a(F-2396.2221041445273
F-2460.6673751328376
tp429
a(F69.03732609433322
F66.34000678656261
tp430
a(F3354.063938618926
F3377.6873401534526
tp431
a(F7942.032640949555
F7923.252225519288
tp432
a(F-3056.238578680203
F-3080.729060913706
tp433
a(g6
(g10
S'\x00\x00'
p434
tp435
Rp436
g6
(g10
S'\x00\x00'
p437
tp438
Rp439
tp440
a(F7.410714285714286
F9.0
tp441
a(F90.07584597432906
F73.53831194087904
tp442
a(g6
(g10
S'\x00\x00'
p443
tp444
Rp445
g6
(g10
S'\x00\x00'
p446
tp447
Rp448
tp449
a(F-858.6160350767303
F-896.0820544942061
tp450
a(F-434.9061876247505
F-110.26347305389221
tp451
a(F12.961538461538462
F8.384615384615385
tp452
a(F-5129.548387096775
F-5232.096774193548
tp453
a(F4.47457627118644
F3.2
tp454
a(F2.045685279187817
F9.83756345177665
tp455
a(F28.996894409937887
F42.34782608695652
tp456
a(F-9075.333333333334
F-8580.90909090909
tp457
a(F2544.88799540494
F2528.4394026421596
tp458
a(F-7.325443786982248
F-20.88757396449704
tp459
a(F-103.01158301158301
F-73.54054054054055
tp460
a(F-13.217898832684824
F-11.669260700389104
tp461
a(F-23.726495726495727
F-0.6794871794871795
tp462
a(g6
(g10
S'\x01\x00'
p463
tp464
Rp465
g6
(g10
S'\x04\x00'
p466
tp467
Rp468
tp469
a(F-30.75021240441801
F-23.766355140186917
tp470
a(F-7498.692307692308
F-7308.759615384615
tp471
a(F4706.116666666667
F3746.6666666666665
tp472
a(g6
(g10
S'\x00\x00'
p473
tp474
Rp475
g6
(g10
S'\x00\x00'
p476
tp477
Rp478
tp479
a(F5.663551401869159
F18.523364485981308
tp480
a(F145.5919881305638
F138.45276953511376
tp481
a(F9316.115384615385
F9695.461538461539
tp482
a(g6
(g10
S'\x00\x00'
p483
tp484
Rp485
g6
(g10
S'\x00\x00'
p486
tp487
Rp488
tp489
a(g6
(g10
S'\x00\x00'
p490
tp491
Rp492
g6
(g10
S'\x00\x00'
p493
tp494
Rp495
tp496
a(F1238.4280031821797
F1250.0238663484488
tp497
a(g6
(g10
S'\x00\x00'
p498
tp499
Rp500
g6
(g10
S'\x00\x00'
p501
tp502
Rp503
tp504
a(g6
(g10
S'\x00\x00'
p505
tp506
Rp507
g6
(g10
S'\x00\x00'
p508
tp509
Rp510
tp511
a(g6
(g10
S'\x00\x00'
p512
tp513
Rp514
g6
(g10
S'\x00\x00'
p515
tp516
Rp517
tp518
a(F37.84444444444444
F57.547222222222224
tp519
a(F-4364.570902394107
F-4380.874769797421
tp520
a(g6
(g10
S'\x00\x00'
p521
tp522
Rp523
g6
(g10
S'\x00\x00'
p524
tp525
Rp526
tp527
a(F53.97872340425532
F36.45390070921986
tp528
a(F-6886.778523489933
F-6780.6912751677855
tp529
a(F-8281.39534883721
F-7930.674418604651
tp530
a(g6
(g10
S'\x0b\x00'
p531
tp532
Rp533
g6
(g10
S'\x0b\x00'
p534
tp535
Rp536
tp537
a(F11.885085574572127
F-2.034229828850856
tp538
a(g6
(g10
S'\x00\x00'
p539
tp540
Rp541
g6
(g10
S'\x00\x00'
p542
tp543
Rp544
tp545
a(F-54.747899159663866
F36.61904761904762
tp546
a(F-2817.215189873418
F-2167.8227848101264
tp547
a(g6
(g10
S'\xae8'
p548
tp549
Rp550
g6
(g10
S'\x83:'
p551
tp552
Rp553
tp554
a(F-3441.0910792264503
F-3447.1696818465375
tp555
a(F-6197.351578947369
F-6178.545263157895
tp556
a(F21.447089947089946
F29.925925925925927
tp557
a(g6
(g10
S'\x00\x00'
p558
tp559
Rp560
g6
(g10
S'\x00\x00'
p561
tp562
Rp563
tp564
a(F34.96995708154506
F7.506437768240343
tp565
a(g6
(g10
S'\xffC'
p566
tp567
Rp568
g6
(g10
S'\x86:'
p569
tp570
Rp571
tp572
a(F19.7434554973822
F7.492146596858639
tp573
a(F-2.3756345177664975
F5.121827411167513
tp574
a(F94.31224445879062
F99.81084570690768
tp575
a(F-2038.8353344768439
F-2016.7226986849628
tp576
a(g6
(g10
S'\x00\x00'
p577
tp578
Rp579
g6
(g10
S'\x00\x00'
p580
tp581
Rp582
tp583
a(F2166.604780876494
F2209.4549800796813
tp584
a(F3658.661478599222
F3328.8443579766536
tp585
a(F111.62692307692308
F-1141.7192307692308
tp586
a(g6
(g10
S'\x00\x00'
p587
tp588
Rp589
g6
(g10
S'\x00\x00'
p590
tp591
Rp592
tp593
a(F-11.370786516853933
F-3.534831460674157
tp594
a(F-1527.8774193548388
F-2215.9290322580646
tp595
a(g6
(g10
S'\r\x00'
p596
tp597
Rp598
g6
(g10
S'\x0c\x00'
p599
tp600
Rp601
tp602
a(F-9685.944444444445
F-10020.083333333334
tp603
a(F-1897.4615384615386
F-416.38461538461536
tp604
a(F-22.033925686591274
F-13.747980613893377
tp605
a(F-726.2304309586632
F-713.8322339489886
tp606
a(F-11199.722222222223
F-12066.611111111111
tp607
a(F-35.00456621004566
F57.61187214611872
tp608
a(F-2595.1144164759726
F-2505.312356979405
tp609
a(F-1705.380042462845
F-1590.583864118896
tp610
a(F-3394.754189944134
F-2841.3854748603353
tp611
a(F-1749.6628726287263
F-1750.429268292683
tp612
a(g6
(g10
S'\x00\x00'
p613
tp614
Rp615
g6
(g10
S'\x00\x00'
p616
tp617
Rp618
tp619
a(F3334.769230769231
F2065.846153846154
tp620
a(g6
(g10
S'\x00\x00'
p621
tp622
Rp623
g6
(g10
S'\x00\x00'
p624
tp625
Rp626
tp627
a(g6
(g10
S'\x00\x00'
p628
tp629
Rp630
g6
(g10
S'\x00\x00'
p631
tp632
Rp633
tp634
a(F12.0
F11.0
tp635
a.